; ModuleID = 'source-C-CXX/4/1041.c'
source_filename = "source-C-CXX/4/1041.c"
target datalayout = "e-m:e-p270:32:32-p271:32:32-p272:64:64-i64:64-f80:128-n8:16:32:64-S128"
target triple = "x86_64-pc-linux-gnu"

@.str = private unnamed_addr constant [4 x i8] c"%lf\00", align 1
@.str.1 = private unnamed_addr constant [5 x i8] c"%s%s\00", align 1
@.str.2 = private unnamed_addr constant [6 x i8] c"error\00", align 1
@.str.3 = private unnamed_addr constant [4 x i8] c"yes\00", align 1
@.str.4 = private unnamed_addr constant [3 x i8] c"no\00", align 1

; Function Attrs: nofree nounwind sspstrong uwtable
define dso_local i32 @main() local_unnamed_addr #0 {
  %1 = alloca [501 x i8], align 16
  %2 = alloca [501 x i8], align 16
  %3 = alloca double, align 8
  %4 = getelementptr inbounds [501 x i8], [501 x i8]* %1, i64 0, i64 0
  call void @llvm.lifetime.start.p0i8(i64 501, i8* nonnull %4) #4
  %5 = getelementptr inbounds [501 x i8], [501 x i8]* %2, i64 0, i64 0
  call void @llvm.lifetime.start.p0i8(i64 501, i8* nonnull %5) #4
  %6 = bitcast double* %3 to i8*
  call void @llvm.lifetime.start.p0i8(i64 8, i8* nonnull %6) #4
  %7 = call i32 (i8*, ...) @__isoc99_scanf(i8* getelementptr inbounds ([4 x i8], [4 x i8]* @.str, i64 0, i64 0), double* nonnull %3)
  %8 = call i32 (i8*, ...) @__isoc99_scanf(i8* getelementptr inbounds ([5 x i8], [5 x i8]* @.str.1, i64 0, i64 0), i8* nonnull %4, i8* nonnull %5)
  %9 = call i64 @strlen(i8* noundef nonnull %4) #5
  %10 = trunc i64 %9 to i32
  %11 = load i8, i8* %5, align 16, !tbaa !5
  %12 = icmp eq i8 %11, 0
  br i1 %12, label %32, label %13

13:                                               ; preds = %0
  %14 = call i64 @strlen(i8* noundef nonnull %5) #5
  %15 = trunc i64 %14 to i32
  %16 = icmp eq i32 %10, %15
  br i1 %16, label %17, label %44

17:                                               ; preds = %13, %24
  %18 = phi i64 [ %28, %24 ], [ 0, %13 ]
  %19 = phi i8 [ %30, %24 ], [ %11, %13 ]
  %20 = phi i32 [ %27, %24 ], [ 0, %13 ]
  %21 = getelementptr inbounds [501 x i8], [501 x i8]* %1, i64 0, i64 %18
  %22 = load i8, i8* %21, align 1, !tbaa !5
  switch i8 %22, label %44 [
    i8 65, label %23
    i8 84, label %23
    i8 71, label %23
    i8 67, label %23
  ]

23:                                               ; preds = %17, %17, %17, %17
  switch i8 %19, label %44 [
    i8 65, label %24
    i8 84, label %24
    i8 71, label %24
    i8 67, label %24
  ]

24:                                               ; preds = %23, %23, %23, %23
  %25 = icmp eq i8 %22, %19
  %26 = zext i1 %25 to i32
  %27 = add nuw nsw i32 %20, %26
  %28 = add nuw i64 %18, 1
  %29 = getelementptr inbounds [501 x i8], [501 x i8]* %2, i64 0, i64 %28
  %30 = load i8, i8* %29, align 1, !tbaa !5
  %31 = icmp eq i8 %30, 0
  br i1 %31, label %32, label %17, !llvm.loop !8

32:                                               ; preds = %24, %0
  %33 = phi i32 [ 0, %0 ], [ %27, %24 ]
  %34 = sitofp i32 %33 to double
  %35 = sitofp i32 %10 to double
  %36 = fdiv double %34, %35
  %37 = add nsw i32 %10, 1
  %38 = icmp eq i32 %33, %37
  br i1 %38, label %44, label %39

39:                                               ; preds = %32
  %40 = load double, double* %3, align 8, !tbaa !10
  %41 = fcmp ogt double %36, %40
  br i1 %41, label %44, label %42

42:                                               ; preds = %39
  %43 = fcmp ugt double %36, %40
  br i1 %43, label %47, label %44

44:                                               ; preds = %17, %23, %42, %39, %32, %13
  %45 = phi i8* [ getelementptr inbounds ([6 x i8], [6 x i8]* @.str.2, i64 0, i64 0), %13 ], [ getelementptr inbounds ([6 x i8], [6 x i8]* @.str.2, i64 0, i64 0), %32 ], [ getelementptr inbounds ([4 x i8], [4 x i8]* @.str.3, i64 0, i64 0), %39 ], [ getelementptr inbounds ([3 x i8], [3 x i8]* @.str.4, i64 0, i64 0), %42 ], [ getelementptr inbounds ([6 x i8], [6 x i8]* @.str.2, i64 0, i64 0), %23 ], [ getelementptr inbounds ([6 x i8], [6 x i8]* @.str.2, i64 0, i64 0), %17 ]
  %46 = call i32 (i8*, ...) @printf(i8* nonnull dereferenceable(1) %45)
  br label %47

47:                                               ; preds = %44, %42
  call void @llvm.lifetime.end.p0i8(i64 8, i8* nonnull %6) #4
  call void @llvm.lifetime.end.p0i8(i64 501, i8* nonnull %5) #4
  call void @llvm.lifetime.end.p0i8(i64 501, i8* nonnull %4) #4
  ret i32 0
}

; Function Attrs: argmemonly mustprogress nofree nosync nounwind willreturn
declare void @llvm.lifetime.start.p0i8(i64 immarg, i8* nocapture) #1

; Function Attrs: nofree nounwind
declare noundef i32 @__isoc99_scanf(i8* nocapture noundef readonly, ...) local_unnamed_addr #2

; Function Attrs: argmemonly mustprogress nofree nounwind readonly willreturn
declare i64 @strlen(i8* nocapture) local_unnamed_addr #3

; Function Attrs: nofree nounwind
declare noundef i32 @printf(i8* nocapture noundef readonly, ...) local_unnamed_addr #2

; Function Attrs: argmemonly mustprogress nofree nosync nounwind willreturn
declare void @llvm.lifetime.end.p0i8(i64 immarg, i8* nocapture) #1


!llvm.module.flags = !{!0, !1, !2, !3}
!llvm.ident = !{!4}

!0 = !{i32 1, !"wchar_size", i32 4}
!1 = !{i32 7, !"PIC Level", i32 2}
!2 = !{i32 7, !"PIE Level", i32 2}
!3 = !{i32 7, !"uwtable", i32 1}
!4 = !{!"clang version 13.0.0"}
!5 = !{!6, !6, i64 0}
!6 = !{!"omnipotent char", !7, i64 0}
!7 = !{!"Simple C/C++ TBAA"}
!8 = distinct !{!8, !9}
!9 = !{!"llvm.loop.mustprogress"}
!10 = !{!11, !11, i64 0}
!11 = !{!"double", !6, i64 0}
